; Function Attrs: nounwind uwtable
define noundef i32 @EVP_MD_CTX_reset(ptr noundef %0) local_unnamed_addr #0 {
  %2 = icmp eq ptr %0, null
  br i1 %2, label %evp_md_ctx_reset_ex.exit, label %3

3:                                                ; preds = %1
  %4 = tail call i32 @EVP_MD_CTX_test_flags(ptr noundef nonnull %0, i32 noundef 1024) #8
  %.not.i = icmp eq i32 %4, 0
  br i1 %.not.i, label %5, label %8

5:                                                ; preds = %3
  %6 = getelementptr inbounds nuw i8, ptr %0, i64 40
  %7 = load ptr, ptr %6, align 8, !tbaa !26
  tail call void @EVP_PKEY_CTX_free(ptr noundef %7) #8
  store ptr null, ptr %6, align 8, !tbaa !26
  br label %8

8:                                                ; preds = %5, %3
  tail call void @evp_md_ctx_clear_digest(ptr noundef nonnull %0, i32 noundef 0, i32 noundef 0)
  tail call void @OPENSSL_cleanse(ptr noundef nonnull %0, i64 noundef 72) #8
  br label %evp_md_ctx_reset_ex.exit

evp_md_ctx_reset_ex.exit:                         ; preds = %1, %8
  ret i32 1
}